target datalayout = "e-m:e-p270:32:32-p271:32:32-p272:64:64-i64:64-i128:128-f80:128-n8:16:32:64-S128"
target triple = "x86_64-pc-linux-gnu"

%struct.ring_buf = type { ptr, i64, i64, i64 }

; Function Attrs: inlinehint nounwind uwtable
define internal i64 @ring_buf_used(ptr noundef %0) #3 {
  %2 = alloca ptr, align 8
  store ptr %0, ptr %2, align 8, !tbaa !22
  %3 = load ptr, ptr %2, align 8, !tbaa !22
  %4 = getelementptr inbounds nuw %struct.ring_buf, ptr %3, i32 0, i32 2
  %5 = load i64, ptr %4, align 8, !tbaa !27
  %6 = load ptr, ptr %2, align 8, !tbaa !22
  %7 = getelementptr inbounds nuw %struct.ring_buf, ptr %6, i32 0, i32 3
  %8 = load i64, ptr %7, align 8, !tbaa !26
  %9 = sub i64 %5, %8
  ret i64 %9
}

; Function Attrs: inlinehint nounwind uwtable
define internal i64 @safe_add_u64(i64 noundef %0, i64 noundef %1, ptr noundef %2) #3 {
  %4 = alloca i64, align 8
  %5 = alloca i64, align 8
  %6 = alloca i64, align 8
  %7 = alloca ptr, align 8
  %8 = alloca i64, align 8
  %9 = alloca i32, align 4
  store i64 %0, ptr %5, align 8, !tbaa !10
  store i64 %1, ptr %6, align 8, !tbaa !10
  store ptr %2, ptr %7, align 8, !tbaa !38
  call void @llvm.lifetime.start.p0(i64 8, ptr %8) #8
  %10 = load i64, ptr %5, align 8, !tbaa !10
  %11 = load i64, ptr %6, align 8, !tbaa !10
  %12 = call { i64, i1 } @llvm.uadd.with.overflow.i64(i64 %10, i64 %11)
  %13 = extractvalue { i64, i1 } %12, 1
  %14 = extractvalue { i64, i1 } %12, 0
  store i64 %14, ptr %8, align 8
  br i1 %13, label %17, label %15

15:                                               ; preds = %3
  %16 = load i64, ptr %8, align 8, !tbaa !10
  store i64 %16, ptr %4, align 8
  store i32 1, ptr %9, align 4
  br label %24

17:                                               ; preds = %3
  %18 = load ptr, ptr %7, align 8, !tbaa !38
  %19 = load i32, ptr %18, align 4, !tbaa !28
  %20 = or i32 %19, 1
  store i32 %20, ptr %18, align 4, !tbaa !28
  %21 = load i64, ptr %5, align 8, !tbaa !10
  %22 = load i64, ptr %6, align 8, !tbaa !10
  %23 = add i64 %21, %22
  store i64 %23, ptr %4, align 8
  store i32 1, ptr %9, align 4
  br label %24

24:                                               ; preds = %17, %15
  call void @llvm.lifetime.end.p0(i64 8, ptr %8) #8
  %25 = load i64, ptr %4, align 8
  ret i64 %25
}

; Function Attrs: inlinehint nounwind uwtable
define internal i64 @ring_buf_avail(ptr noundef %0) #3 {
  %2 = alloca ptr, align 8
  store ptr %0, ptr %2, align 8, !tbaa !22
  %3 = load ptr, ptr %2, align 8, !tbaa !22
  %4 = getelementptr inbounds nuw %struct.ring_buf, ptr %3, i32 0, i32 1
  %5 = load i64, ptr %4, align 8, !tbaa !25
  %6 = load ptr, ptr %2, align 8, !tbaa !22
  %7 = call i64 @ring_buf_used(ptr noundef %6)
  %8 = sub i64 %5, %7
  ret i64 %8
}

; Function Attrs: inlinehint nounwind uwtable
define internal i32 @ring_buf_write_at(ptr noundef %0, i64 noundef %1, ptr noundef %2, i64 noundef %3) #3 {
  %5 = alloca i32, align 4
  %6 = alloca ptr, align 8
  %7 = alloca i64, align 8
  %8 = alloca ptr, align 8
  %9 = alloca i64, align 8
  %10 = alloca i64, align 8
  %11 = alloca i64, align 8
  %12 = alloca i64, align 8
  %13 = alloca ptr, align 8
  %14 = alloca i32, align 4
  %15 = alloca i32, align 4
  %16 = alloca i32, align 4
  store ptr %0, ptr %6, align 8, !tbaa !22
  store i64 %1, ptr %7, align 8, !tbaa !10
  store ptr %2, ptr %8, align 8, !tbaa !29
  store i64 %3, ptr %9, align 8, !tbaa !10
  call void @llvm.lifetime.start.p0(i64 8, ptr %10) #8
  call void @llvm.lifetime.start.p0(i64 8, ptr %11) #8
  call void @llvm.lifetime.start.p0(i64 8, ptr %12) #8
  call void @llvm.lifetime.start.p0(i64 8, ptr %13) #8
  %17 = load ptr, ptr %6, align 8, !tbaa !22
  %18 = getelementptr inbounds nuw %struct.ring_buf, ptr %17, i32 0, i32 0
  %19 = load ptr, ptr %18, align 8, !tbaa !24
  store ptr %19, ptr %13, align 8, !tbaa !29
  call void @llvm.lifetime.start.p0(i64 4, ptr %14) #8
  call void @llvm.lifetime.start.p0(i64 4, ptr %15) #8
  store i32 0, ptr %15, align 4, !tbaa !28
  %20 = load ptr, ptr %6, align 8, !tbaa !22
  %21 = call i64 @ring_buf_avail(ptr noundef %20)
  store i64 %21, ptr %10, align 8, !tbaa !10
  %22 = load i64, ptr %7, align 8, !tbaa !10
  %23 = load ptr, ptr %6, align 8, !tbaa !22
  %24 = getelementptr inbounds nuw %struct.ring_buf, ptr %23, i32 0, i32 3
  %25 = load i64, ptr %24, align 8, !tbaa !26
  %26 = icmp ult i64 %22, %25
  br i1 %26, label %47, label %27

27:                                               ; preds = %4
  %28 = load i64, ptr %7, align 8, !tbaa !10
  %29 = load i64, ptr %9, align 8, !tbaa !10
  %30 = call i64 @safe_add_u64(i64 noundef %28, i64 noundef %29, ptr noundef %15)
  %31 = load ptr, ptr %6, align 8, !tbaa !22
  %32 = getelementptr inbounds nuw %struct.ring_buf, ptr %31, i32 0, i32 2
  %33 = load i64, ptr %32, align 8, !tbaa !27
  %34 = load i64, ptr %10, align 8, !tbaa !10
  %35 = call i64 @safe_add_u64(i64 noundef %33, i64 noundef %34, ptr noundef %15)
  %36 = icmp ugt i64 %30, %35
  br i1 %36, label %47, label %37

37:                                               ; preds = %27
  %38 = load ptr, ptr %6, align 8, !tbaa !22
  %39 = getelementptr inbounds nuw %struct.ring_buf, ptr %38, i32 0, i32 2
  %40 = load i64, ptr %39, align 8, !tbaa !27
  %41 = load i64, ptr %9, align 8, !tbaa !10
  %42 = call i64 @safe_add_u64(i64 noundef %40, i64 noundef %41, ptr noundef %15)
  %43 = icmp ugt i64 %42, 4611686018427387904
  br i1 %43, label %47, label %44

44:                                               ; preds = %37
  %45 = load i32, ptr %15, align 4, !tbaa !28
  %46 = icmp ne i32 %45, 0
  br i1 %46, label %47, label %48

47:                                               ; preds = %44, %37, %27, %4
  store i32 0, ptr %5, align 4
  store i32 1, ptr %16, align 4
  br label %106

48:                                               ; preds = %44
  store i32 0, ptr %14, align 4, !tbaa !28
  br label %49

49:                                               ; preds = %102, %48
  %50 = load i64, ptr %9, align 8, !tbaa !10
  %51 = icmp ugt i64 %50, 0
  br i1 %51, label %52, label %55

52:                                               ; preds = %49
  %53 = load i32, ptr %14, align 4, !tbaa !28
  %54 = icmp slt i32 %53, 2
  br label %55

55:                                               ; preds = %52, %49
  %56 = phi i1 [ false, %49 ], [ %54, %52 ]
  br i1 %56, label %57, label %105

57:                                               ; preds = %55
  %58 = load i64, ptr %7, align 8, !tbaa !10
  %59 = load ptr, ptr %6, align 8, !tbaa !22
  %60 = getelementptr inbounds nuw %struct.ring_buf, ptr %59, i32 0, i32 1
  %61 = load i64, ptr %60, align 8, !tbaa !25
  %62 = urem i64 %58, %61
  store i64 %62, ptr %11, align 8, !tbaa !10
  %63 = load ptr, ptr %6, align 8, !tbaa !22
  %64 = getelementptr inbounds nuw %struct.ring_buf, ptr %63, i32 0, i32 1
  %65 = load i64, ptr %64, align 8, !tbaa !25
  %66 = load i64, ptr %11, align 8, !tbaa !10
  %67 = sub i64 %65, %66
  store i64 %67, ptr %12, align 8, !tbaa !10
  %68 = load i64, ptr %9, align 8, !tbaa !10
  %69 = load i64, ptr %12, align 8, !tbaa !10
  %70 = icmp ult i64 %68, %69
  br i1 %70, label %71, label %73

71:                                               ; preds = %57
  %72 = load i64, ptr %9, align 8, !tbaa !10
  store i64 %72, ptr %12, align 8, !tbaa !10
  br label %73

73:                                               ; preds = %71, %57
  %74 = load ptr, ptr %13, align 8, !tbaa !29
  %75 = load i64, ptr %11, align 8, !tbaa !10
  %76 = getelementptr inbounds nuw i8, ptr %74, i64 %75
  %77 = load ptr, ptr %8, align 8, !tbaa !29
  %78 = load i64, ptr %12, align 8, !tbaa !10
  call void @llvm.memcpy.p0.p0.i64(ptr align 1 %76, ptr align 1 %77, i64 %78, i1 false)
  %79 = load ptr, ptr %6, align 8, !tbaa !22
  %80 = getelementptr inbounds nuw %struct.ring_buf, ptr %79, i32 0, i32 2
  %81 = load i64, ptr %80, align 8, !tbaa !27
  %82 = load i64, ptr %7, align 8, !tbaa !10
  %83 = load i64, ptr %12, align 8, !tbaa !10
  %84 = add i64 %82, %83
  %85 = icmp ult i64 %81, %84
  br i1 %85, label %86, label %92

86:                                               ; preds = %73
  %87 = load i64, ptr %7, align 8, !tbaa !10
  %88 = load i64, ptr %12, align 8, !tbaa !10
  %89 = add i64 %87, %88
  %90 = load ptr, ptr %6, align 8, !tbaa !22
  %91 = getelementptr inbounds nuw %struct.ring_buf, ptr %90, i32 0, i32 2
  store i64 %89, ptr %91, align 8, !tbaa !27
  br label %92

92:                                               ; preds = %86, %73
  %93 = load i64, ptr %12, align 8, !tbaa !10
  %94 = load i64, ptr %7, align 8, !tbaa !10
  %95 = add i64 %94, %93
  store i64 %95, ptr %7, align 8, !tbaa !10
  %96 = load i64, ptr %12, align 8, !tbaa !10
  %97 = load ptr, ptr %8, align 8, !tbaa !29
  %98 = getelementptr inbounds nuw i8, ptr %97, i64 %96
  store ptr %98, ptr %8, align 8, !tbaa !29
  %99 = load i64, ptr %12, align 8, !tbaa !10
  %100 = load i64, ptr %9, align 8, !tbaa !10
  %101 = sub i64 %100, %99
  store i64 %101, ptr %9, align 8, !tbaa !10
  br label %102

102:                                              ; preds = %92
  %103 = load i32, ptr %14, align 4, !tbaa !28
  %104 = add nsw i32 %103, 1
  store i32 %104, ptr %14, align 4, !tbaa !28
  br label %49, !llvm.loop !51

105:                                              ; preds = %55
  store i32 1, ptr %5, align 4
  store i32 1, ptr %16, align 4
  br label %106

106:                                              ; preds = %105, %47
  call void @llvm.lifetime.end.p0(i64 4, ptr %15) #8
  call void @llvm.lifetime.end.p0(i64 4, ptr %14) #8
  call void @llvm.lifetime.end.p0(i64 8, ptr %13) #8
  call void @llvm.lifetime.end.p0(i64 8, ptr %12) #8
  call void @llvm.lifetime.end.p0(i64 8, ptr %11) #8
  call void @llvm.lifetime.end.p0(i64 8, ptr %10) #8
  %107 = load i32, ptr %5, align 4
  ret i32 %107
}

; Function Attrs: nounwind uwtable
define internal i32 @write_at_ring_buf_cb(i64 noundef %0, ptr noundef %1, i64 noundef %2, ptr noundef %3) #0 {
  %5 = alloca i64, align 8
  %6 = alloca ptr, align 8
  %7 = alloca i64, align 8
  %8 = alloca ptr, align 8
  %9 = alloca ptr, align 8
  store i64 %0, ptr %5, align 8, !tbaa !10
  store ptr %1, ptr %6, align 8, !tbaa !29
  store i64 %2, ptr %7, align 8, !tbaa !10
  store ptr %3, ptr %8, align 8, !tbaa !41
  call void @llvm.lifetime.start.p0(i64 8, ptr %9) #8
  %10 = load ptr, ptr %8, align 8, !tbaa !41
  store ptr %10, ptr %9, align 8, !tbaa !22
  %11 = load ptr, ptr %9, align 8, !tbaa !22
  %12 = load i64, ptr %5, align 8, !tbaa !10
  %13 = load ptr, ptr %6, align 8, !tbaa !29
  %14 = load i64, ptr %7, align 8, !tbaa !10
  %15 = call i32 @ring_buf_write_at(ptr noundef %11, i64 noundef %12, ptr noundef %13, i64 noundef %14)
  call void @llvm.lifetime.end.p0(i64 8, ptr %9) #8
  ret i32 %15
}