; Function Attrs: nofree norecurse nosync nounwind memory(readwrite, inaccessiblemem: none) uwtable
define internal range(i32 0, 2) i32 @write_at_ring_buf_cb(i64 noundef %0, ptr noundef readonly captures(none) %1, i64 noundef %2, ptr noundef captures(none) %3) #4 {
  %5 = load ptr, ptr %3, align 8, !tbaa !20
  %6 = getelementptr inbounds nuw i8, ptr %3, i64 8
  %7 = getelementptr i8, ptr %3, i64 16
  %.val.i.i = load i64, ptr %7, align 8, !tbaa !18
  %8 = getelementptr i8, ptr %3, i64 24
  %.val2.i.i = load i64, ptr %8, align 8, !tbaa !19
  %9 = icmp ult i64 %0, %.val2.i.i
  br i1 %9, label %ring_buf_write_at.exit, label %safe_add_u64.exit.i

safe_add_u64.exit.i:                              ; preds = %4
  %10 = load i64, ptr %6, align 8, !tbaa !17
  %.neg.i.i = sub i64 %.val2.i.i, %.val.i.i
  %11 = add i64 %.neg.i.i, %10
  %12 = tail call { i64, i1 } @llvm.uadd.with.overflow.i64(i64 %0, i64 %2)
  %13 = extractvalue { i64, i1 } %12, 1
  %14 = add i64 %2, %0
  %15 = tail call { i64, i1 } @llvm.uadd.with.overflow.i64(i64 %.val.i.i, i64 %11)
  %16 = extractvalue { i64, i1 } %15, 1
  %17 = add i64 %10, %.val2.i.i
  %18 = extractvalue { i64, i1 } %15, 0
  %.0.i45.i = select i1 %16, i64 %17, i64 %18
  %19 = icmp ugt i64 %14, %.0.i45.i
  br i1 %19, label %ring_buf_write_at.exit, label %20

20:                                               ; preds = %safe_add_u64.exit.i
  %21 = tail call { i64, i1 } @llvm.uadd.with.overflow.i64(i64 %.val.i.i, i64 %2)
  %22 = extractvalue { i64, i1 } %21, 1
  br i1 %22, label %ring_buf_write_at.exit, label %safe_add_u64.exit48.i

safe_add_u64.exit48.i:                            ; preds = %20
  %23 = extractvalue { i64, i1 } %21, 0
  %24 = icmp ugt i64 %23, 4611686018427387904
  %25 = or i1 %13, %24
  %or.cond.i = or i1 %25, %16
  br i1 %or.cond.i, label %ring_buf_write_at.exit, label %.preheader.i

.preheader.i:                                     ; preds = %safe_add_u64.exit48.i
  %.not.i = icmp eq i64 %2, 0
  br i1 %.not.i, label %ring_buf_write_at.exit, label %.lr.ph.i

.lr.ph.i:                                         ; preds = %.preheader.i, %35
  %26 = phi i1 [ false, %35 ], [ true, %.preheader.i ]
  %.03958.i = phi i64 [ %32, %35 ], [ %0, %.preheader.i ]
  %.04057.i = phi ptr [ %36, %35 ], [ %1, %.preheader.i ]
  %.04156.i = phi i64 [ %37, %35 ], [ %2, %.preheader.i ]
  %27 = load i64, ptr %6, align 8, !tbaa !17
  %28 = urem i64 %.03958.i, %27
  %29 = sub i64 %27, %28
  %spec.select.i = tail call i64 @llvm.umin.i64(i64 %.04156.i, i64 %29)
  %30 = getelementptr inbounds nuw i8, ptr %5, i64 %28
  tail call void @llvm.memcpy.p0.p0.i64(ptr align 1 %30, ptr align 1 %.04057.i, i64 %spec.select.i, i1 false)
  %31 = load i64, ptr %7, align 8, !tbaa !18
  %32 = add i64 %spec.select.i, %.03958.i
  %33 = icmp ult i64 %31, %32
  br i1 %33, label %34, label %35

34:                                               ; preds = %.lr.ph.i
  store i64 %32, ptr %7, align 8, !tbaa !18
  br label %35

35:                                               ; preds = %34, %.lr.ph.i
  %36 = getelementptr inbounds nuw i8, ptr %.04057.i, i64 %spec.select.i
  %37 = sub i64 %.04156.i, %spec.select.i
  %38 = icmp ne i64 %37, 0
  %39 = and i1 %26, %38
  br i1 %39, label %.lr.ph.i, label %ring_buf_write_at.exit, !llvm.loop !35

ring_buf_write_at.exit:                           ; preds = %35, %4, %safe_add_u64.exit.i, %20, %safe_add_u64.exit48.i, %.preheader.i
  %.037.i = phi i32 [ 0, %safe_add_u64.exit48.i ], [ 0, %safe_add_u64.exit.i ], [ 0, %4 ], [ 0, %20 ], [ 1, %.preheader.i ], [ 1, %35 ]
  ret i32 %.037.i
}